target datalayout = "e-m:e-p270:32:32-p271:32:32-p272:64:64-i64:64-i128:128-f80:128-n8:16:32:64-S128"
target triple = "x86_64-pc-linux-gnu"

%struct.archive_read_disk = type { %struct.archive, ptr, i8, i8, ptr, ptr, ptr, ptr, i32, ptr, ptr, ptr, ptr, ptr, ptr, ptr, ptr, ptr, ptr, ptr }
%struct.archive = type { i32, i32, ptr, i32, ptr, i32, i32, ptr, %struct.archive_string, ptr, i32, i32, ptr, ptr, i64, i64, i64, i8, i64 }
%struct.archive_string = type { ptr, i64, i64 }

; Function Attrs: nounwind uwtable
define internal i32 @_archive_read_next_header(ptr noundef %0, ptr noundef %1) #0 {
  %3 = alloca ptr, align 8
  %4 = alloca ptr, align 8
  %5 = alloca i32, align 4
  %6 = alloca ptr, align 8
  store ptr %0, ptr %3, align 8
  store ptr %1, ptr %4, align 8
  %7 = load ptr, ptr %3, align 8
  store ptr %7, ptr %6, align 8
  %8 = load ptr, ptr %4, align 8
  store ptr null, ptr %8, align 8
  %9 = load ptr, ptr %3, align 8
  %10 = load ptr, ptr %6, align 8
  %11 = getelementptr inbounds %struct.archive_read_disk, ptr %10, i32 0, i32 1
  %12 = load ptr, ptr %11, align 8
  %13 = call i32 @_archive_read_next_header2(ptr noundef %9, ptr noundef %12)
  store i32 %13, ptr %5, align 4
  %14 = load ptr, ptr %6, align 8
  %15 = getelementptr inbounds %struct.archive_read_disk, ptr %14, i32 0, i32 1
  %16 = load ptr, ptr %15, align 8
  %17 = load ptr, ptr %4, align 8
  store ptr %16, ptr %17, align 8
  %18 = load i32, ptr %5, align 4
  ret i32 %18
}