; Function Attrs: nounwind uwtable
define internal i32 @_archive_read_next_header(ptr noundef %0, ptr noundef writeonly captures(none) initializes((0, 8)) %1) #0 {
  store ptr null, ptr %1, align 8
  %3 = getelementptr inbounds nuw i8, ptr %0, i64 144
  %4 = load ptr, ptr %3, align 8
  %5 = tail call i32 @_archive_read_next_header2(ptr noundef %0, ptr noundef %4)
  %6 = load ptr, ptr %3, align 8
  store ptr %6, ptr %1, align 8
  ret i32 %5
}